; Function Attrs: mustprogress uwtable
define noundef zeroext i1 @_ZNK8QuantLib7Austria12ExchangeImpl13isBusinessDayERKNS_4DateE(ptr noundef nonnull align 8 dereferenceable(104) %this, ptr noundef nonnull align 8 dereferenceable(8) %date) unnamed_addr #0 align 2 {
entry:
  %0 = load i64, ptr %date, align 8, !tbaa !30
  %rem.i = srem i64 %0, 7
  %conv.i = trunc nsw i64 %rem.i to i32
  %cmp.i = icmp eq i64 %rem.i, 0
  %cond.i = select i1 %cmp.i, i32 7, i32 %conv.i
  %call.i.i = tail call noundef i32 @_ZNK8QuantLib4Date4yearEv(ptr noundef nonnull align 8 dereferenceable(8) %date)
  %call2.i.i = tail call noundef i64 @_ZN8QuantLib4Date10yearOffsetEi(i32 noundef %call.i.i)
  %sub.i.i = sub nsw i64 %0, %call2.i.i
  %conv.i.i = trunc i64 %sub.i.i to i32
  %call2.i = tail call noundef i32 @_ZNK8QuantLib4Date5monthEv(ptr noundef nonnull align 8 dereferenceable(8) %date)
  %call3.i = tail call noundef i32 @_ZNK8QuantLib4Date4yearEv(ptr noundef nonnull align 8 dereferenceable(8) %date)
  %call4.i = tail call noundef zeroext i1 @_ZN8QuantLib4Date6isLeapEi(i32 noundef %call3.i)
  %call5.i = tail call noundef i32 @_ZN8QuantLib4Date11monthOffsetENS_5MonthEb(i32 noundef %call2.i, i1 noundef zeroext %call4.i)
  %sub.i = sub nsw i32 %conv.i.i, %call5.i
  %1 = load i64, ptr %date, align 8, !tbaa !30
  %call.i = tail call noundef i32 @_ZNK8QuantLib4Date4yearEv(ptr noundef nonnull align 8 dereferenceable(8) %date)
  %call2.i43 = tail call noundef i64 @_ZN8QuantLib4Date10yearOffsetEi(i32 noundef %call.i)
  %call4 = tail call noundef i32 @_ZNK8QuantLib4Date5monthEv(ptr noundef nonnull align 8 dereferenceable(8) %date)
  %call5 = tail call noundef i32 @_ZNK8QuantLib4Date4yearEv(ptr noundef nonnull align 8 dereferenceable(8) %date)
  %call6 = tail call noundef i32 @_ZN8QuantLib8Calendar11WesternImpl12easterMondayEi(i32 noundef %call5)
  %call7 = tail call noundef zeroext i1 @_ZNK8QuantLib8Calendar11WesternImpl9isWeekendENS_7WeekdayE(ptr noundef nonnull align 8 dereferenceable(104) %this, i32 noundef %cond.i)
  br i1 %call7, label %cleanup, label %lor.lhs.false

lor.lhs.false:                                    ; preds = %entry
  %sub.i44 = sub nsw i64 %1, %call2.i43
  %conv.i45 = trunc i64 %sub.i44 to i32
  %cmp = icmp eq i32 %sub.i, 1
  %cmp8 = icmp eq i32 %call4, 1
  %or.cond = and i1 %cmp, %cmp8
  %sub = add nsw i32 %call6, -3
  %cmp10 = icmp eq i32 %sub, %conv.i45
  %or.cond36 = select i1 %or.cond, i1 true, i1 %cmp10
  %cmp12 = icmp eq i32 %call6, %conv.i45
  %or.cond37 = or i1 %cmp12, %or.cond36
  %add = add nsw i32 %call6, 49
  %cmp14 = icmp eq i32 %add, %conv.i45
  %or.cond38 = select i1 %or.cond37, i1 true, i1 %cmp14
  %cmp18 = icmp eq i32 %call4, 5
  %or.cond1 = and i1 %cmp, %cmp18
  %or.cond39 = or i1 %or.cond1, %or.cond38
  br i1 %or.cond39, label %cleanup, label %lor.lhs.false19

lor.lhs.false19:                                  ; preds = %lor.lhs.false
  %cmp20 = icmp eq i32 %sub.i, 26
  %cmp22 = icmp eq i32 %call4, 10
  %cmp24 = icmp sgt i32 %call5, 1966
  %2 = and i1 %cmp22, %cmp24
  %or.cond3 = and i1 %cmp20, %2
  br i1 %or.cond3, label %cleanup, label %lor.lhs.false25

lor.lhs.false25:                                  ; preds = %lor.lhs.false19
  %cmp26 = icmp eq i32 %sub.i, 12
  %cmp28 = icmp eq i32 %call4, 11
  %or.cond4 = and i1 %cmp26, %cmp28
  %3 = add i32 %call5, -1919
  %4 = icmp ult i32 %3, 16
  %or.cond6 = and i1 %or.cond4, %4
  br i1 %or.cond6, label %cleanup, label %lor.lhs.false33

lor.lhs.false33:                                  ; preds = %lor.lhs.false25
  %cmp36 = icmp eq i32 %call4, 12
  %5 = and i32 %sub.i, -2
  %or.cond746 = icmp eq i32 %5, 24
  %cmp46 = icmp eq i32 %sub.i, 31
  %6 = or i1 %cmp46, %or.cond746
  %or.cond4148 = or i1 %cmp20, %6
  %or.cond42 = and i1 %or.cond4148, %cmp36
  %not.or.cond42 = xor i1 %or.cond42, true
  br label %cleanup

cleanup:                                          ; preds = %lor.lhs.false33, %entry, %lor.lhs.false, %lor.lhs.false19, %lor.lhs.false25
  %retval.0 = phi i1 [ false, %lor.lhs.false25 ], [ false, %lor.lhs.false19 ], [ false, %lor.lhs.false ], [ false, %entry ], [ %not.or.cond42, %lor.lhs.false33 ]
  ret i1 %retval.0
}